target datalayout = "e-m:e-p270:32:32-p271:32:32-p272:64:64-i64:64-i128:128-f80:128-n8:16:32:64-S128"
target triple = "x86_64-unknown-linux-gnu"

%"struct.node::AssertionInfo" = type { ptr, ptr, ptr }
%"class.node::crypto::NodeBIO" = type { %"class.node::MemoryRetainer", ptr, i64, i64, i64, i32, ptr, ptr }
%"class.node::MemoryRetainer" = type { ptr }
%"class.node::crypto::NodeBIO::Buffer" = type { ptr, i64, i64, i64, ptr, ptr }

@_ZZN4node6crypto7NodeBIO7IndexOfEcmE4args = internal constant %"struct.node::AssertionInfo" { ptr @.str.15, ptr @.str.16, ptr @.str.17 }, align 8
@_ZZN4node6crypto7NodeBIO7IndexOfEcmE4args_0 = internal constant %"struct.node::AssertionInfo" { ptr @.str.18, ptr @.str.19, ptr @.str.17 }, align 8

; Function Attrs: mustprogress nounwind uwtable
define linkonce_odr dso_local noundef i64 @_ZNK4node6crypto7NodeBIO6LengthEv(ptr noundef nonnull align 8 dereferenceable(64) %this) #4 comdat align 2 {
entry:
  %this.addr = alloca ptr, align 8
  store ptr %this, ptr %this.addr, align 8
  %this1 = load ptr, ptr %this.addr, align 8
  %length_ = getelementptr inbounds %"class.node::crypto::NodeBIO", ptr %this1, i32 0, i32 3
  %0 = load i64, ptr %length_, align 8
  ret i64 %0
}

; Function Attrs: mustprogress nounwind uwtable
define dso_local noundef i64 @_ZN4node6crypto7NodeBIO7IndexOfEcm(ptr noundef nonnull align 8 dereferenceable(64) %this, i8 noundef signext %delim, i64 noundef %limit) #4 align 2 {
entry:
  %retval = alloca i64, align 8
  %this.addr = alloca ptr, align 8
  %delim.addr = alloca i8, align 1
  %limit.addr = alloca i64, align 8
  %bytes_read = alloca i64, align 8
  %max = alloca i64, align 8
  %left = alloca i64, align 8
  %current = alloca ptr, align 8
  %avail = alloca i64, align 8
  %tmp = alloca ptr, align 8
  %off = alloca i64, align 8
  store ptr %this, ptr %this.addr, align 8
  store i8 %delim, ptr %delim.addr, align 1
  store i64 %limit, ptr %limit.addr, align 8
  %this1 = load ptr, ptr %this.addr, align 8
  store i64 0, ptr %bytes_read, align 8
  %call = call noundef i64 @_ZNK4node6crypto7NodeBIO6LengthEv(ptr noundef nonnull align 8 dereferenceable(64) %this1)
  %0 = load i64, ptr %limit.addr, align 8
  %cmp = icmp ugt i64 %call, %0
  br i1 %cmp, label %cond.true, label %cond.false

cond.true:                                        ; preds = %entry
  %1 = load i64, ptr %limit.addr, align 8
  br label %cond.end

cond.false:                                       ; preds = %entry
  %call2 = call noundef i64 @_ZNK4node6crypto7NodeBIO6LengthEv(ptr noundef nonnull align 8 dereferenceable(64) %this1)
  br label %cond.end

cond.end:                                         ; preds = %cond.false, %cond.true
  %cond = phi i64 [ %1, %cond.true ], [ %call2, %cond.false ]
  store i64 %cond, ptr %max, align 8
  %2 = load i64, ptr %limit.addr, align 8
  store i64 %2, ptr %left, align 8
  %read_head_ = getelementptr inbounds %"class.node::crypto::NodeBIO", ptr %this1, i32 0, i32 6
  %3 = load ptr, ptr %read_head_, align 8
  store ptr %3, ptr %current, align 8
  br label %while.cond

while.cond:                                       ; preds = %if.end28, %cond.end
  %4 = load i64, ptr %bytes_read, align 8
  %5 = load i64, ptr %max, align 8
  %cmp3 = icmp ult i64 %4, %5
  br i1 %cmp3, label %while.body, label %while.end29

while.body:                                       ; preds = %while.cond
  br label %do.body

do.body:                                          ; preds = %while.body
  %6 = load ptr, ptr %current, align 8
  %read_pos_ = getelementptr inbounds %"class.node::crypto::NodeBIO::Buffer", ptr %6, i32 0, i32 1
  %7 = load i64, ptr %read_pos_, align 8
  %8 = load ptr, ptr %current, align 8
  %write_pos_ = getelementptr inbounds %"class.node::crypto::NodeBIO::Buffer", ptr %8, i32 0, i32 2
  %9 = load i64, ptr %write_pos_, align 8
  %cmp4 = icmp ule i64 %7, %9
  %lnot = xor i1 %cmp4, true
  %lnot5 = xor i1 %lnot, true
  %lnot6 = xor i1 %lnot5, true
  br i1 %lnot6, label %if.then, label %if.end

if.then:                                          ; preds = %do.body
  br label %do.body7

do.body7:                                         ; preds = %if.then
  call void @_ZN4node6AssertERKNS_13AssertionInfoE(ptr noundef nonnull align 8 dereferenceable(24) @_ZZN4node6crypto7NodeBIO7IndexOfEcmE4args)
  call void @abort() #12
  unreachable

do.end:                                           ; No predecessors!
  br label %if.end

if.end:                                           ; preds = %do.end, %do.body
  br label %do.end8

do.end8:                                          ; preds = %if.end
  %10 = load ptr, ptr %current, align 8
  %write_pos_9 = getelementptr inbounds %"class.node::crypto::NodeBIO::Buffer", ptr %10, i32 0, i32 2
  %11 = load i64, ptr %write_pos_9, align 8
  %12 = load ptr, ptr %current, align 8
  %read_pos_10 = getelementptr inbounds %"class.node::crypto::NodeBIO::Buffer", ptr %12, i32 0, i32 1
  %13 = load i64, ptr %read_pos_10, align 8
  %sub = sub i64 %11, %13
  store i64 %sub, ptr %avail, align 8
  %14 = load i64, ptr %avail, align 8
  %15 = load i64, ptr %left, align 8
  %cmp11 = icmp ugt i64 %14, %15
  br i1 %cmp11, label %if.then12, label %if.end13

if.then12:                                        ; preds = %do.end8
  %16 = load i64, ptr %left, align 8
  store i64 %16, ptr %avail, align 8
  br label %if.end13

if.end13:                                         ; preds = %if.then12, %do.end8
  %17 = load ptr, ptr %current, align 8
  %data_ = getelementptr inbounds %"class.node::crypto::NodeBIO::Buffer", ptr %17, i32 0, i32 5
  %18 = load ptr, ptr %data_, align 8
  %19 = load ptr, ptr %current, align 8
  %read_pos_14 = getelementptr inbounds %"class.node::crypto::NodeBIO::Buffer", ptr %19, i32 0, i32 1
  %20 = load i64, ptr %read_pos_14, align 8
  %add.ptr = getelementptr inbounds i8, ptr %18, i64 %20
  store ptr %add.ptr, ptr %tmp, align 8
  store i64 0, ptr %off, align 8
  br label %while.cond15

while.cond15:                                     ; preds = %while.body19, %if.end13
  %21 = load i64, ptr %off, align 8
  %22 = load i64, ptr %avail, align 8
  %cmp16 = icmp ult i64 %21, %22
  br i1 %cmp16, label %land.rhs, label %land.end

land.rhs:                                         ; preds = %while.cond15
  %23 = load ptr, ptr %tmp, align 8
  %24 = load i8, ptr %23, align 1
  %conv = sext i8 %24 to i32
  %25 = load i8, ptr %delim.addr, align 1
  %conv17 = sext i8 %25 to i32
  %cmp18 = icmp ne i32 %conv, %conv17
  br label %land.end

land.end:                                         ; preds = %land.rhs, %while.cond15
  %26 = phi i1 [ false, %while.cond15 ], [ %cmp18, %land.rhs ]
  br i1 %26, label %while.body19, label %while.end

while.body19:                                     ; preds = %land.end
  %27 = load i64, ptr %off, align 8
  %inc = add i64 %27, 1
  store i64 %inc, ptr %off, align 8
  %28 = load ptr, ptr %tmp, align 8
  %incdec.ptr = getelementptr inbounds i8, ptr %28, i32 1
  store ptr %incdec.ptr, ptr %tmp, align 8
  br label %while.cond15, !llvm.loop !10

while.end:                                        ; preds = %land.end
  %29 = load i64, ptr %off, align 8
  %30 = load i64, ptr %bytes_read, align 8
  %add = add i64 %30, %29
  store i64 %add, ptr %bytes_read, align 8
  %31 = load i64, ptr %off, align 8
  %32 = load i64, ptr %left, align 8
  %sub20 = sub i64 %32, %31
  store i64 %sub20, ptr %left, align 8
  %33 = load i64, ptr %off, align 8
  %34 = load i64, ptr %avail, align 8
  %cmp21 = icmp ne i64 %33, %34
  br i1 %cmp21, label %if.then22, label %if.end23

if.then22:                                        ; preds = %while.end
  %35 = load i64, ptr %bytes_read, align 8
  store i64 %35, ptr %retval, align 8
  br label %return

if.end23:                                         ; preds = %while.end
  %36 = load ptr, ptr %current, align 8
  %read_pos_24 = getelementptr inbounds %"class.node::crypto::NodeBIO::Buffer", ptr %36, i32 0, i32 1
  %37 = load i64, ptr %read_pos_24, align 8
  %38 = load i64, ptr %avail, align 8
  %add25 = add i64 %37, %38
  %39 = load ptr, ptr %current, align 8
  %len_ = getelementptr inbounds %"class.node::crypto::NodeBIO::Buffer", ptr %39, i32 0, i32 3
  %40 = load i64, ptr %len_, align 8
  %cmp26 = icmp eq i64 %add25, %40
  br i1 %cmp26, label %if.then27, label %if.end28

if.then27:                                        ; preds = %if.end23
  %41 = load ptr, ptr %current, align 8
  %next_ = getelementptr inbounds %"class.node::crypto::NodeBIO::Buffer", ptr %41, i32 0, i32 4
  %42 = load ptr, ptr %next_, align 8
  store ptr %42, ptr %current, align 8
  br label %if.end28

if.end28:                                         ; preds = %if.then27, %if.end23
  br label %while.cond, !llvm.loop !11

while.end29:                                      ; preds = %while.cond
  br label %do.body30

do.body30:                                        ; preds = %while.end29
  %43 = load i64, ptr %max, align 8
  %44 = load i64, ptr %bytes_read, align 8
  %cmp31 = icmp eq i64 %43, %44
  %lnot32 = xor i1 %cmp31, true
  %lnot33 = xor i1 %lnot32, true
  %lnot34 = xor i1 %lnot33, true
  br i1 %lnot34, label %if.then36, label %if.end39

if.then36:                                        ; preds = %do.body30
  br label %do.body37

do.body37:                                        ; preds = %if.then36
  call void @_ZN4node6AssertERKNS_13AssertionInfoE(ptr noundef nonnull align 8 dereferenceable(24) @_ZZN4node6crypto7NodeBIO7IndexOfEcmE4args_0)
  call void @abort() #12
  unreachable

do.end38:                                         ; No predecessors!
  br label %if.end39

if.end39:                                         ; preds = %do.end38, %do.body30
  br label %do.end40

do.end40:                                         ; preds = %if.end39
  %45 = load i64, ptr %max, align 8
  store i64 %45, ptr %retval, align 8
  br label %return

return:                                           ; preds = %do.end40, %if.then22
  %46 = load i64, ptr %retval, align 8
  ret i64 %46
}