; Function Attrs: mustprogress nounwind uwtable
define dso_local noundef i64 @_ZN4node6crypto7NodeBIO7IndexOfEcm(ptr nocapture noundef nonnull readonly align 8 dereferenceable(64) %this, i8 noundef signext %delim, i64 noundef %limit) local_unnamed_addr #3 align 2 {
entry:
  %length_.i = getelementptr inbounds i8, ptr %this, i64 24
  %0 = load i64, ptr %length_.i, align 8
  %spec.select27 = tail call i64 @llvm.umin.i64(i64 %0, i64 %limit)
  %cmp334.not = icmp eq i64 %spec.select27, 0
  br i1 %cmp334.not, label %return, label %do.body.preheader

do.body.preheader:                                ; preds = %entry
  %read_head_ = getelementptr inbounds i8, ptr %this, i64 48
  %1 = load ptr, ptr %read_head_, align 8
  br label %do.body

do.body:                                          ; preds = %do.body.preheader, %if.end28
  %current.037 = phi ptr [ %current.1, %if.end28 ], [ %1, %do.body.preheader ]
  %left.036 = phi i64 [ %sub2045, %if.end28 ], [ %limit, %do.body.preheader ]
  %bytes_read.035 = phi i64 [ %add44, %if.end28 ], [ 0, %do.body.preheader ]
  %read_pos_ = getelementptr inbounds i8, ptr %current.037, i64 8
  %2 = load i64, ptr %read_pos_, align 8
  %write_pos_ = getelementptr inbounds i8, ptr %current.037, i64 16
  %3 = load i64, ptr %write_pos_, align 8
  %cmp4.not = icmp ugt i64 %2, %3
  br i1 %cmp4.not, label %do.body7, label %do.end8

do.body7:                                         ; preds = %do.body
  tail call void @_ZN4node6AssertERKNS_13AssertionInfoE(ptr noundef nonnull align 8 dereferenceable(24) @_ZZN4node6crypto7NodeBIO7IndexOfEcmE4args) #16
  tail call void @abort() #17
  unreachable

do.end8:                                          ; preds = %do.body
  %sub = sub i64 %3, %2
  %spec.select = tail call i64 @llvm.umin.i64(i64 %sub, i64 %left.036)
  %cmp1630.not = icmp eq i64 %spec.select, 0
  br i1 %cmp1630.not, label %while.end, label %land.rhs.preheader

land.rhs.preheader:                               ; preds = %do.end8
  %data_ = getelementptr inbounds i8, ptr %current.037, i64 40
  %4 = load ptr, ptr %data_, align 8
  %add.ptr = getelementptr inbounds i8, ptr %4, i64 %2
  br label %land.rhs

land.rhs:                                         ; preds = %land.rhs.preheader, %while.body19
  %off.032 = phi i64 [ %inc, %while.body19 ], [ 0, %land.rhs.preheader ]
  %tmp.031 = phi ptr [ %incdec.ptr, %while.body19 ], [ %add.ptr, %land.rhs.preheader ]
  %5 = load i8, ptr %tmp.031, align 1
  %cmp18.not = icmp eq i8 %5, %delim
  br i1 %cmp18.not, label %while.end, label %while.body19

while.body19:                                     ; preds = %land.rhs
  %inc = add nuw i64 %off.032, 1
  %incdec.ptr = getelementptr inbounds i8, ptr %tmp.031, i64 1
  %exitcond.not = icmp eq i64 %inc, %spec.select
  br i1 %exitcond.not, label %while.end.thread, label %land.rhs, !llvm.loop !10

while.end.thread:                                 ; preds = %while.body19
  %add41 = add i64 %spec.select, %bytes_read.035
  br label %if.end23

while.end:                                        ; preds = %land.rhs, %do.end8
  %off.0.lcssa = phi i64 [ 0, %do.end8 ], [ %off.032, %land.rhs ]
  %add = add i64 %off.0.lcssa, %bytes_read.035
  %cmp21.not = icmp eq i64 %off.0.lcssa, %spec.select
  br i1 %cmp21.not, label %if.end23, label %return

if.end23:                                         ; preds = %while.end.thread, %while.end
  %spec.select.pn = phi i64 [ %spec.select, %while.end.thread ], [ %off.0.lcssa, %while.end ]
  %add44 = phi i64 [ %add41, %while.end.thread ], [ %add, %while.end ]
  %sub2045 = sub i64 %left.036, %spec.select.pn
  %add25 = add i64 %spec.select, %2
  %len_ = getelementptr inbounds i8, ptr %current.037, i64 24
  %6 = load i64, ptr %len_, align 8
  %cmp26 = icmp eq i64 %add25, %6
  br i1 %cmp26, label %if.then27, label %if.end28

if.then27:                                        ; preds = %if.end23
  %next_ = getelementptr inbounds i8, ptr %current.037, i64 32
  %7 = load ptr, ptr %next_, align 8
  br label %if.end28

if.end28:                                         ; preds = %if.then27, %if.end23
  %current.1 = phi ptr [ %7, %if.then27 ], [ %current.037, %if.end23 ]
  %cmp3 = icmp ult i64 %add44, %spec.select27
  br i1 %cmp3, label %do.body, label %do.body30, !llvm.loop !11

do.body30:                                        ; preds = %if.end28
  %cmp31.not = icmp eq i64 %spec.select27, %add44
  br i1 %cmp31.not, label %return, label %do.body37

do.body37:                                        ; preds = %do.body30
  tail call void @_ZN4node6AssertERKNS_13AssertionInfoE(ptr noundef nonnull align 8 dereferenceable(24) @_ZZN4node6crypto7NodeBIO7IndexOfEcmE4args_0) #16
  tail call void @abort() #17
  unreachable

return:                                           ; preds = %while.end, %entry, %do.body30
  %retval.0 = phi i64 [ %spec.select27, %do.body30 ], [ 0, %entry ], [ %add, %while.end ]
  ret i64 %retval.0
}